#include <math.h>
#include <stdio.h>
#include <stdlib.h>
#include <string.h>

void main()
{
    char string[256];
    char substring[256];
    char replacement[256];
    scanf("%s",string);
    scanf("%s",substring);
    scanf("%s",replacement);
    int length_string=strlen(string);
    int length_substring=strlen(substring);
    int length_replacement=strlen(replacement);
    int i,j,k;
    for(i=0;i<length_string;i++)
    {
       for(j=0;j<length_substring;j++)
       {
           if(substring[j]!=string[i+j])
           {
                 break;
           }
       }
       if(j==length_substring)
       {
           for(k=0;k<length_substring;k++)
           {  
                  string[i+k]=replacement[k];
           }
		   break;
       }
	}
    printf("%s\n",string);

}